target datalayout = "e-m:e-p270:32:32-p271:32:32-p272:64:64-i64:64-i128:128-f80:128-n8:16:32:64-S128"
target triple = "x86_64-pc-linux-gnu"

%struct.AVCodecContext = type { ptr, i32, i32, ptr, i32, i32, ptr, ptr, ptr, i64, i32, i32, ptr, i32, %struct.AVRational, %struct.AVRational, %struct.AVRational, i32, i32, i32, i32, i32, %struct.AVRational, i32, i32, i32, i32, i32, i32, i32, i32, i32, i32, i32, ptr, ptr, i32, float, float, float, float, float, float, float, float, float, i32, i32, i32, i32, i32, i32, i32, i32, i32, i32, i32, i32, ptr, ptr, ptr, i32, i32, i32, i32, i32, i32, i32, i32, i32, i32, %struct.AVChannelLayout, i32, i32, i32, i32, i32, i32, i32, i32, ptr, i32, i32, i32, float, float, i32, i32, i32, i32, i32, ptr, i64, i64, float, float, i32, i32, ptr, ptr, i32, i32, i32, i32, i32, ptr, ptr, ptr, ptr, i32, i32, [8 x i64], i32, i32, i32, i32, i32, i32, i32, ptr, ptr, i32, i32, i32, i32, i32, i32, i32, i32, i32, i32, ptr, ptr, i32, i32, ptr, ptr, ptr, ptr, i32, i32, i64, i32, i32, i64, ptr, i64, ptr, i32, ptr, i32 }
%struct.AVRational = type { i32, i32 }
%struct.AVChannelLayout = type { i32, i32, %union.anon, ptr }
%union.anon = type { i64 }
%struct.AVCodecInternal = type { i32, i32, i32, ptr, ptr, ptr, ptr, ptr, ptr, ptr, i32, ptr, ptr, ptr, i32, i32, ptr, i32, ptr, ptr, i32, i32 }
%struct.VAAPIDecodePicture = type { i32, i32, ptr, i32, i32, ptr, i32 }
%struct.VAAPIDecodeContext = type { i32, i32, ptr, ptr, ptr, ptr, i32, i32, %struct._VASurfaceAttrib }
%struct._VASurfaceAttrib = type { i32, i32, %struct._VAGenericValue }
%struct._VAGenericValue = type { i32, %union.anon.0 }
%union.anon.0 = type { ptr }
%struct.AVVAAPIDeviceContext = type { ptr, i32 }

@.str = private unnamed_addr constant [30 x i8] c"Assertion %s failed at %s:%d\0A\00", align 1
@.str.2 = private unnamed_addr constant [26 x i8] c"libavcodec/vaapi_decode.c\00", align 1
@.str.6 = private unnamed_addr constant [50 x i8] c"pic->nb_slices <= pic->nb_slice_buffers_allocated\00", align 1
@.str.7 = private unnamed_addr constant [54 x i8] c"pic->nb_slices + 1 <= pic->nb_slice_buffers_allocated\00", align 1
@.str.8 = private unnamed_addr constant [51 x i8] c"Failed to create slice parameter buffer: %d (%s).\0A\00", align 1
@.str.9 = private unnamed_addr constant [43 x i8] c"Slice %d param buffer (%zu bytes) is %#x.\0A\00", align 1
@.str.10 = private unnamed_addr constant [57 x i8] c"Failed to create slice data buffer (size %zu): %d (%s).\0A\00", align 1
@.str.11 = private unnamed_addr constant [42 x i8] c"Slice %d data buffer (%zu bytes) is %#x.\0A\00", align 1

; Function Attrs: nounwind uwtable
define i32 @ff_vaapi_decode_make_slice_buffer(ptr noundef %0, ptr noundef %1, ptr noundef %2, i32 noundef %3, i64 noundef %4, ptr noundef %5, i64 noundef %6) #0 {
  %8 = alloca i32, align 4
  %9 = alloca ptr, align 8
  %10 = alloca ptr, align 8
  %11 = alloca ptr, align 8
  %12 = alloca i32, align 4
  %13 = alloca i64, align 8
  %14 = alloca ptr, align 8
  %15 = alloca i64, align 8
  %16 = alloca ptr, align 8
  %17 = alloca i32, align 4
  %18 = alloca i32, align 4
  %19 = alloca ptr, align 8
  %20 = alloca i32, align 4
  store ptr %0, ptr %9, align 8, !tbaa !4
  store ptr %1, ptr %10, align 8, !tbaa !9
  store ptr %2, ptr %11, align 8, !tbaa !13
  store i32 %3, ptr %12, align 4, !tbaa !11
  store i64 %4, ptr %13, align 8, !tbaa !14
  store ptr %5, ptr %14, align 8, !tbaa !13
  store i64 %6, ptr %15, align 8, !tbaa !14
  call void @llvm.lifetime.start.p0(i64 8, ptr %16) #6
  %21 = load ptr, ptr %9, align 8, !tbaa !4
  %22 = getelementptr inbounds nuw %struct.AVCodecContext, ptr %21, i32 0, i32 7
  %23 = load ptr, ptr %22, align 8, !tbaa !16
  %24 = getelementptr inbounds nuw %struct.AVCodecInternal, ptr %23, i32 0, i32 16
  %25 = load ptr, ptr %24, align 8, !tbaa !34
  store ptr %25, ptr %16, align 8, !tbaa !41
  call void @llvm.lifetime.start.p0(i64 4, ptr %17) #6
  call void @llvm.lifetime.start.p0(i64 4, ptr %18) #6
  br label %26

26:                                               ; preds = %7
  %27 = load ptr, ptr %10, align 8, !tbaa !9
  %28 = getelementptr inbounds nuw %struct.VAAPIDecodePicture, ptr %27, i32 0, i32 4
  %29 = load i32, ptr %28, align 4, !tbaa !59
  %30 = load ptr, ptr %10, align 8, !tbaa !9
  %31 = getelementptr inbounds nuw %struct.VAAPIDecodePicture, ptr %30, i32 0, i32 6
  %32 = load i32, ptr %31, align 8, !tbaa !60
  %33 = icmp sle i32 %29, %32
  br i1 %33, label %35, label %34

34:                                               ; preds = %26
  call void (ptr, i32, ptr, ...) @av_log(ptr noundef null, i32 noundef 0, ptr noundef @.str, ptr noundef @.str.6, ptr noundef @.str.2, i32 noundef 87)
  call void @abort() #7
  unreachable

35:                                               ; preds = %26
  br label %36

36:                                               ; preds = %35
  br label %37

37:                                               ; preds = %36
  %38 = load ptr, ptr %10, align 8, !tbaa !9
  %39 = getelementptr inbounds nuw %struct.VAAPIDecodePicture, ptr %38, i32 0, i32 4
  %40 = load i32, ptr %39, align 4, !tbaa !59
  %41 = load ptr, ptr %10, align 8, !tbaa !9
  %42 = getelementptr inbounds nuw %struct.VAAPIDecodePicture, ptr %41, i32 0, i32 6
  %43 = load i32, ptr %42, align 8, !tbaa !60
  %44 = icmp eq i32 %40, %43
  br i1 %44, label %45, label %87

45:                                               ; preds = %37
  call void @llvm.lifetime.start.p0(i64 8, ptr %19) #6
  %46 = load ptr, ptr %10, align 8, !tbaa !9
  %47 = getelementptr inbounds nuw %struct.VAAPIDecodePicture, ptr %46, i32 0, i32 5
  %48 = load ptr, ptr %47, align 8, !tbaa !61
  %49 = load ptr, ptr %10, align 8, !tbaa !9
  %50 = getelementptr inbounds nuw %struct.VAAPIDecodePicture, ptr %49, i32 0, i32 6
  %51 = load i32, ptr %50, align 8, !tbaa !60
  %52 = icmp ne i32 %51, 0
  br i1 %52, label %53, label %58

53:                                               ; preds = %45
  %54 = load ptr, ptr %10, align 8, !tbaa !9
  %55 = getelementptr inbounds nuw %struct.VAAPIDecodePicture, ptr %54, i32 0, i32 6
  %56 = load i32, ptr %55, align 8, !tbaa !60
  %57 = mul nsw i32 %56, 2
  br label %59

58:                                               ; preds = %45
  br label %59

59:                                               ; preds = %58, %53
  %60 = phi i32 [ %57, %53 ], [ 64, %58 ]
  %61 = sext i32 %60 to i64
  %62 = call ptr @av_realloc_array(ptr noundef %48, i64 noundef %61, i64 noundef 8)
  store ptr %62, ptr %19, align 8, !tbaa !47
  %63 = load ptr, ptr %19, align 8, !tbaa !47
  %64 = icmp ne ptr %63, null
  br i1 %64, label %66, label %65

65:                                               ; preds = %59
  store i32 -12, ptr %8, align 4
  store i32 1, ptr %20, align 4
  br label %84

66:                                               ; preds = %59
  %67 = load ptr, ptr %19, align 8, !tbaa !47
  %68 = load ptr, ptr %10, align 8, !tbaa !9
  %69 = getelementptr inbounds nuw %struct.VAAPIDecodePicture, ptr %68, i32 0, i32 5
  store ptr %67, ptr %69, align 8, !tbaa !61
  %70 = load ptr, ptr %10, align 8, !tbaa !9
  %71 = getelementptr inbounds nuw %struct.VAAPIDecodePicture, ptr %70, i32 0, i32 6
  %72 = load i32, ptr %71, align 8, !tbaa !60
  %73 = icmp ne i32 %72, 0
  br i1 %73, label %74, label %79

74:                                               ; preds = %66
  %75 = load ptr, ptr %10, align 8, !tbaa !9
  %76 = getelementptr inbounds nuw %struct.VAAPIDecodePicture, ptr %75, i32 0, i32 6
  %77 = load i32, ptr %76, align 8, !tbaa !60
  %78 = mul nsw i32 %77, 2
  br label %80

79:                                               ; preds = %66
  br label %80

80:                                               ; preds = %79, %74
  %81 = phi i32 [ %78, %74 ], [ 64, %79 ]
  %82 = load ptr, ptr %10, align 8, !tbaa !9
  %83 = getelementptr inbounds nuw %struct.VAAPIDecodePicture, ptr %82, i32 0, i32 6
  store i32 %81, ptr %83, align 8, !tbaa !60
  store i32 0, ptr %20, align 4
  br label %84

84:                                               ; preds = %80, %65
  call void @llvm.lifetime.end.p0(i64 8, ptr %19) #6
  %85 = load i32, ptr %20, align 4
  switch i32 %85, label %202 [
    i32 0, label %86
  ]

86:                                               ; preds = %84
  br label %87

87:                                               ; preds = %86, %37
  br label %88

88:                                               ; preds = %87
  %89 = load ptr, ptr %10, align 8, !tbaa !9
  %90 = getelementptr inbounds nuw %struct.VAAPIDecodePicture, ptr %89, i32 0, i32 4
  %91 = load i32, ptr %90, align 4, !tbaa !59
  %92 = add nsw i32 %91, 1
  %93 = load ptr, ptr %10, align 8, !tbaa !9
  %94 = getelementptr inbounds nuw %struct.VAAPIDecodePicture, ptr %93, i32 0, i32 6
  %95 = load i32, ptr %94, align 8, !tbaa !60
  %96 = icmp sle i32 %92, %95
  br i1 %96, label %98, label %97

97:                                               ; preds = %88
  call void (ptr, i32, ptr, ...) @av_log(ptr noundef null, i32 noundef 0, ptr noundef @.str, ptr noundef @.str.7, ptr noundef @.str.2, i32 noundef 99)
  call void @abort() #7
  unreachable

98:                                               ; preds = %88
  br label %99

99:                                               ; preds = %98
  br label %100

100:                                              ; preds = %99
  %101 = load ptr, ptr %10, align 8, !tbaa !9
  %102 = getelementptr inbounds nuw %struct.VAAPIDecodePicture, ptr %101, i32 0, i32 4
  %103 = load i32, ptr %102, align 4, !tbaa !59
  %104 = mul nsw i32 2, %103
  store i32 %104, ptr %18, align 4, !tbaa !11
  %105 = load ptr, ptr %16, align 8, !tbaa !41
  %106 = getelementptr inbounds nuw %struct.VAAPIDecodeContext, ptr %105, i32 0, i32 3
  %107 = load ptr, ptr %106, align 8, !tbaa !48
  %108 = getelementptr inbounds nuw %struct.AVVAAPIDeviceContext, ptr %107, i32 0, i32 0
  %109 = load ptr, ptr %108, align 8, !tbaa !56
  %110 = load ptr, ptr %16, align 8, !tbaa !41
  %111 = getelementptr inbounds nuw %struct.VAAPIDecodeContext, ptr %110, i32 0, i32 1
  %112 = load i32, ptr %111, align 4, !tbaa !58
  %113 = load i64, ptr %13, align 8, !tbaa !14
  %114 = trunc i64 %113 to i32
  %115 = load i32, ptr %12, align 4, !tbaa !11
  %116 = load ptr, ptr %11, align 8, !tbaa !13
  %117 = load ptr, ptr %10, align 8, !tbaa !9
  %118 = getelementptr inbounds nuw %struct.VAAPIDecodePicture, ptr %117, i32 0, i32 5
  %119 = load ptr, ptr %118, align 8, !tbaa !61
  %120 = load i32, ptr %18, align 4, !tbaa !11
  %121 = sext i32 %120 to i64
  %122 = getelementptr inbounds i32, ptr %119, i64 %121
  %123 = call i32 @vaCreateBuffer(ptr noundef %109, i32 noundef %112, i32 noundef 4, i32 noundef %114, i32 noundef %115, ptr noundef %116, ptr noundef %122)
  store i32 %123, ptr %17, align 4, !tbaa !11
  %124 = load i32, ptr %17, align 4, !tbaa !11
  %125 = icmp ne i32 %124, 0
  br i1 %125, label %126, label %131

126:                                              ; preds = %100
  %127 = load ptr, ptr %9, align 8, !tbaa !4
  %128 = load i32, ptr %17, align 4, !tbaa !11
  %129 = load i32, ptr %17, align 4, !tbaa !11
  %130 = call ptr @vaErrorStr(i32 noundef %129)
  call void (ptr, i32, ptr, ...) @av_log(ptr noundef %127, i32 noundef 16, ptr noundef @.str.8, i32 noundef %128, ptr noundef %130)
  store i32 -5, ptr %8, align 4
  store i32 1, ptr %20, align 4
  br label %202

131:                                              ; preds = %100
  %132 = load ptr, ptr %9, align 8, !tbaa !4
  %133 = load ptr, ptr %10, align 8, !tbaa !9
  %134 = getelementptr inbounds nuw %struct.VAAPIDecodePicture, ptr %133, i32 0, i32 4
  %135 = load i32, ptr %134, align 4, !tbaa !59
  %136 = load i64, ptr %13, align 8, !tbaa !14
  %137 = load ptr, ptr %10, align 8, !tbaa !9
  %138 = getelementptr inbounds nuw %struct.VAAPIDecodePicture, ptr %137, i32 0, i32 5
  %139 = load ptr, ptr %138, align 8, !tbaa !61
  %140 = load i32, ptr %18, align 4, !tbaa !11
  %141 = sext i32 %140 to i64
  %142 = getelementptr inbounds i32, ptr %139, i64 %141
  %143 = load i32, ptr %142, align 4, !tbaa !11
  call void (ptr, i32, ptr, ...) @av_log(ptr noundef %132, i32 noundef 48, ptr noundef @.str.9, i32 noundef %135, i64 noundef %136, i32 noundef %143)
  %144 = load ptr, ptr %16, align 8, !tbaa !41
  %145 = getelementptr inbounds nuw %struct.VAAPIDecodeContext, ptr %144, i32 0, i32 3
  %146 = load ptr, ptr %145, align 8, !tbaa !48
  %147 = getelementptr inbounds nuw %struct.AVVAAPIDeviceContext, ptr %146, i32 0, i32 0
  %148 = load ptr, ptr %147, align 8, !tbaa !56
  %149 = load ptr, ptr %16, align 8, !tbaa !41
  %150 = getelementptr inbounds nuw %struct.VAAPIDecodeContext, ptr %149, i32 0, i32 1
  %151 = load i32, ptr %150, align 4, !tbaa !58
  %152 = load i64, ptr %15, align 8, !tbaa !14
  %153 = trunc i64 %152 to i32
  %154 = load ptr, ptr %14, align 8, !tbaa !13
  %155 = load ptr, ptr %10, align 8, !tbaa !9
  %156 = getelementptr inbounds nuw %struct.VAAPIDecodePicture, ptr %155, i32 0, i32 5
  %157 = load ptr, ptr %156, align 8, !tbaa !61
  %158 = load i32, ptr %18, align 4, !tbaa !11
  %159 = add nsw i32 %158, 1
  %160 = sext i32 %159 to i64
  %161 = getelementptr inbounds i32, ptr %157, i64 %160
  %162 = call i32 @vaCreateBuffer(ptr noundef %148, i32 noundef %151, i32 noundef 5, i32 noundef %153, i32 noundef 1, ptr noundef %154, ptr noundef %161)
  store i32 %162, ptr %17, align 4, !tbaa !11
  %163 = load i32, ptr %17, align 4, !tbaa !11
  %164 = icmp ne i32 %163, 0
  br i1 %164, label %165, label %184

165:                                              ; preds = %131
  %166 = load ptr, ptr %9, align 8, !tbaa !4
  %167 = load i64, ptr %15, align 8, !tbaa !14
  %168 = load i32, ptr %17, align 4, !tbaa !11
  %169 = load i32, ptr %17, align 4, !tbaa !11
  %170 = call ptr @vaErrorStr(i32 noundef %169)
  call void (ptr, i32, ptr, ...) @av_log(ptr noundef %166, i32 noundef 16, ptr noundef @.str.10, i64 noundef %167, i32 noundef %168, ptr noundef %170)
  %171 = load ptr, ptr %16, align 8, !tbaa !41
  %172 = getelementptr inbounds nuw %struct.VAAPIDecodeContext, ptr %171, i32 0, i32 3
  %173 = load ptr, ptr %172, align 8, !tbaa !48
  %174 = getelementptr inbounds nuw %struct.AVVAAPIDeviceContext, ptr %173, i32 0, i32 0
  %175 = load ptr, ptr %174, align 8, !tbaa !56
  %176 = load ptr, ptr %10, align 8, !tbaa !9
  %177 = getelementptr inbounds nuw %struct.VAAPIDecodePicture, ptr %176, i32 0, i32 5
  %178 = load ptr, ptr %177, align 8, !tbaa !61
  %179 = load i32, ptr %18, align 4, !tbaa !11
  %180 = sext i32 %179 to i64
  %181 = getelementptr inbounds i32, ptr %178, i64 %180
  %182 = load i32, ptr %181, align 4, !tbaa !11
  %183 = call i32 @vaDestroyBuffer(ptr noundef %175, i32 noundef %182)
  store i32 -5, ptr %8, align 4
  store i32 1, ptr %20, align 4
  br label %202

184:                                              ; preds = %131
  %185 = load ptr, ptr %9, align 8, !tbaa !4
  %186 = load ptr, ptr %10, align 8, !tbaa !9
  %187 = getelementptr inbounds nuw %struct.VAAPIDecodePicture, ptr %186, i32 0, i32 4
  %188 = load i32, ptr %187, align 4, !tbaa !59
  %189 = load i64, ptr %15, align 8, !tbaa !14
  %190 = load ptr, ptr %10, align 8, !tbaa !9
  %191 = getelementptr inbounds nuw %struct.VAAPIDecodePicture, ptr %190, i32 0, i32 5
  %192 = load ptr, ptr %191, align 8, !tbaa !61
  %193 = load i32, ptr %18, align 4, !tbaa !11
  %194 = add nsw i32 %193, 1
  %195 = sext i32 %194 to i64
  %196 = getelementptr inbounds i32, ptr %192, i64 %195
  %197 = load i32, ptr %196, align 4, !tbaa !11
  call void (ptr, i32, ptr, ...) @av_log(ptr noundef %185, i32 noundef 48, ptr noundef @.str.11, i32 noundef %188, i64 noundef %189, i32 noundef %197)
  %198 = load ptr, ptr %10, align 8, !tbaa !9
  %199 = getelementptr inbounds nuw %struct.VAAPIDecodePicture, ptr %198, i32 0, i32 4
  %200 = load i32, ptr %199, align 4, !tbaa !59
  %201 = add nsw i32 %200, 1
  store i32 %201, ptr %199, align 4, !tbaa !59
  store i32 0, ptr %8, align 4
  store i32 1, ptr %20, align 4
  br label %202

202:                                              ; preds = %184, %165, %126, %84
  call void @llvm.lifetime.end.p0(i64 4, ptr %18) #6
  call void @llvm.lifetime.end.p0(i64 4, ptr %17) #6
  call void @llvm.lifetime.end.p0(i64 8, ptr %16) #6
  %203 = load i32, ptr %8, align 4
  ret i32 %203
}