; Function Attrs: nounwind uwtable
define range(i32 -12, 1) i32 @ff_vaapi_decode_make_slice_buffer(ptr noundef %0, ptr noundef captures(none) %1, ptr noundef %2, i32 noundef %3, i64 noundef %4, ptr noundef %5, i64 noundef %6) local_unnamed_addr #0 {
  %8 = getelementptr inbounds nuw i8, ptr %0, i64 40
  %9 = load ptr, ptr %8, align 8, !tbaa !4
  %10 = getelementptr inbounds nuw i8, ptr %9, i64 112
  %11 = load ptr, ptr %10, align 8, !tbaa !27
  %12 = getelementptr inbounds nuw i8, ptr %1, i64 20
  %13 = load i32, ptr %12, align 4, !tbaa !50
  %14 = getelementptr inbounds nuw i8, ptr %1, i64 32
  %15 = load i32, ptr %14, align 8, !tbaa !51
  %.not = icmp sgt i32 %13, %15
  br i1 %.not, label %16, label %17

16:                                               ; preds = %7
  tail call void (ptr, i32, ptr, ...) @av_log(ptr noundef null, i32 noundef 0, ptr noundef nonnull @.str, ptr noundef nonnull @.str.6, ptr noundef nonnull @.str.2, i32 noundef 87) #4
  tail call void @abort() #5
  unreachable

17:                                               ; preds = %7
  %18 = icmp eq i32 %13, %15
  br i1 %18, label %19, label %28

19:                                               ; preds = %17
  %20 = getelementptr inbounds nuw i8, ptr %1, i64 24
  %21 = load ptr, ptr %20, align 8, !tbaa !52
  %.not61 = icmp eq i32 %13, 0
  %22 = shl nsw i32 %13, 1
  %narrow = select i1 %.not61, i32 64, i32 %22
  %23 = sext i32 %narrow to i64
  %24 = tail call ptr @av_realloc_array(ptr noundef %21, i64 noundef %23, i64 noundef 8) #4
  %.not62.not = icmp eq ptr %24, null
  br i1 %.not62.not, label %.critedge, label %25

25:                                               ; preds = %19
  store ptr %24, ptr %20, align 8, !tbaa !52
  %26 = load i32, ptr %14, align 8, !tbaa !51
  %.not63 = icmp eq i32 %26, 0
  %27 = shl nsw i32 %26, 1
  %spec.select = select i1 %.not63, i32 64, i32 %27
  store i32 %spec.select, ptr %14, align 8, !tbaa !51
  %.pre = load i32, ptr %12, align 4, !tbaa !50
  br label %28

28:                                               ; preds = %25, %17
  %29 = phi i32 [ %spec.select, %25 ], [ %15, %17 ]
  %30 = phi i32 [ %.pre, %25 ], [ %13, %17 ]
  %.not64.not = icmp slt i32 %30, %29
  br i1 %.not64.not, label %32, label %31

31:                                               ; preds = %28
  tail call void (ptr, i32, ptr, ...) @av_log(ptr noundef null, i32 noundef 0, ptr noundef nonnull @.str, ptr noundef nonnull @.str.7, ptr noundef nonnull @.str.2, i32 noundef 99) #4
  tail call void @abort() #5
  unreachable

32:                                               ; preds = %28
  %33 = shl nsw i32 %30, 1
  %34 = getelementptr inbounds nuw i8, ptr %11, i64 16
  %35 = load ptr, ptr %34, align 8, !tbaa !38
  %36 = load ptr, ptr %35, align 8, !tbaa !46
  %37 = getelementptr inbounds nuw i8, ptr %11, i64 4
  %38 = load i32, ptr %37, align 4, !tbaa !48
  %39 = trunc i64 %4 to i32
  %40 = getelementptr inbounds nuw i8, ptr %1, i64 24
  %41 = load ptr, ptr %40, align 8, !tbaa !52
  %42 = sext i32 %33 to i64
  %43 = getelementptr inbounds i32, ptr %41, i64 %42
  %44 = tail call i32 @vaCreateBuffer(ptr noundef %36, i32 noundef %38, i32 noundef 4, i32 noundef %39, i32 noundef %3, ptr noundef %2, ptr noundef %43) #4
  %.not65 = icmp eq i32 %44, 0
  br i1 %.not65, label %47, label %45

45:                                               ; preds = %32
  %46 = tail call ptr @vaErrorStr(i32 noundef %44) #4
  tail call void (ptr, i32, ptr, ...) @av_log(ptr noundef nonnull %0, i32 noundef 16, ptr noundef nonnull @.str.8, i32 noundef %44, ptr noundef %46) #4
  br label %.critedge

47:                                               ; preds = %32
  %48 = load i32, ptr %12, align 4, !tbaa !50
  %49 = load ptr, ptr %40, align 8, !tbaa !52
  %50 = getelementptr inbounds i32, ptr %49, i64 %42
  %51 = load i32, ptr %50, align 4, !tbaa !49
  tail call void (ptr, i32, ptr, ...) @av_log(ptr noundef nonnull %0, i32 noundef 48, ptr noundef nonnull @.str.9, i32 noundef %48, i64 noundef %4, i32 noundef %51) #4
  %52 = load ptr, ptr %34, align 8, !tbaa !38
  %53 = load ptr, ptr %52, align 8, !tbaa !46
  %54 = load i32, ptr %37, align 4, !tbaa !48
  %55 = trunc i64 %6 to i32
  %56 = load ptr, ptr %40, align 8, !tbaa !52
  %57 = or disjoint i32 %33, 1
  %58 = sext i32 %57 to i64
  %59 = getelementptr inbounds i32, ptr %56, i64 %58
  %60 = tail call i32 @vaCreateBuffer(ptr noundef %53, i32 noundef %54, i32 noundef 5, i32 noundef %55, i32 noundef 1, ptr noundef %5, ptr noundef nonnull %59) #4
  %.not66 = icmp eq i32 %60, 0
  br i1 %.not66, label %69, label %61

61:                                               ; preds = %47
  %62 = tail call ptr @vaErrorStr(i32 noundef %60) #4
  tail call void (ptr, i32, ptr, ...) @av_log(ptr noundef nonnull %0, i32 noundef 16, ptr noundef nonnull @.str.10, i64 noundef %6, i32 noundef %60, ptr noundef %62) #4
  %63 = load ptr, ptr %34, align 8, !tbaa !38
  %64 = load ptr, ptr %63, align 8, !tbaa !46
  %65 = load ptr, ptr %40, align 8, !tbaa !52
  %66 = getelementptr inbounds i32, ptr %65, i64 %42
  %67 = load i32, ptr %66, align 4, !tbaa !49
  %68 = tail call i32 @vaDestroyBuffer(ptr noundef %64, i32 noundef %67) #4
  br label %.critedge

69:                                               ; preds = %47
  %70 = load i32, ptr %12, align 4, !tbaa !50
  %71 = load ptr, ptr %40, align 8, !tbaa !52
  %72 = getelementptr inbounds i32, ptr %71, i64 %58
  %73 = load i32, ptr %72, align 4, !tbaa !49
  tail call void (ptr, i32, ptr, ...) @av_log(ptr noundef nonnull %0, i32 noundef 48, ptr noundef nonnull @.str.11, i32 noundef %70, i64 noundef %6, i32 noundef %73) #4
  %74 = load i32, ptr %12, align 4, !tbaa !50
  %75 = add nsw i32 %74, 1
  store i32 %75, ptr %12, align 4, !tbaa !50
  br label %.critedge

.critedge:                                        ; preds = %19, %69, %61, %45
  %.1 = phi i32 [ -5, %45 ], [ -5, %61 ], [ 0, %69 ], [ -12, %19 ]
  ret i32 %.1
}